target datalayout = "e-m:e-p270:32:32-p271:32:32-p272:64:64-i64:64-i128:128-f80:128-n8:16:32:64-S128"
target triple = "x86_64-pc-linux-gnu"

%struct.sha1_ctx = type { [64 x i8], i64, [5 x i32] }

; Function Attrs: nounwind uwtable
define dso_local void @rhash_sha1_update(ptr noundef %0, ptr noundef %1, i64 noundef %2) #0 {
  %4 = alloca ptr, align 8
  %5 = alloca ptr, align 8
  %6 = alloca i64, align 8
  %7 = alloca i32, align 4
  %8 = alloca i32, align 4
  %9 = alloca i32, align 4
  %10 = alloca ptr, align 8
  store ptr %0, ptr %4, align 8, !tbaa !4
  store ptr %1, ptr %5, align 8, !tbaa !14
  store i64 %2, ptr %6, align 8, !tbaa !16
  call void @llvm.lifetime.start.p0(i64 4, ptr %7) #5
  %11 = load ptr, ptr %4, align 8, !tbaa !4
  %12 = getelementptr inbounds nuw %struct.sha1_ctx, ptr %11, i32 0, i32 1
  %13 = load i64, ptr %12, align 8, !tbaa !9
  %14 = trunc i64 %13 to i32
  %15 = and i32 %14, 63
  store i32 %15, ptr %7, align 4, !tbaa !12
  %16 = load i64, ptr %6, align 8, !tbaa !16
  %17 = load ptr, ptr %4, align 8, !tbaa !4
  %18 = getelementptr inbounds nuw %struct.sha1_ctx, ptr %17, i32 0, i32 1
  %19 = load i64, ptr %18, align 8, !tbaa !9
  %20 = add i64 %19, %16
  store i64 %20, ptr %18, align 8, !tbaa !9
  %21 = load i32, ptr %7, align 4, !tbaa !12
  %22 = icmp ne i32 %21, 0
  br i1 %22, label %23, label %67

23:                                               ; preds = %3
  call void @llvm.lifetime.start.p0(i64 4, ptr %8) #5
  %24 = load i32, ptr %7, align 4, !tbaa !12
  %25 = sub i32 64, %24
  store i32 %25, ptr %8, align 4, !tbaa !12
  %26 = load ptr, ptr %4, align 8, !tbaa !4
  %27 = getelementptr inbounds nuw %struct.sha1_ctx, ptr %26, i32 0, i32 0
  %28 = getelementptr inbounds [64 x i8], ptr %27, i64 0, i64 0
  %29 = load i32, ptr %7, align 4, !tbaa !12
  %30 = zext i32 %29 to i64
  %31 = getelementptr inbounds nuw i8, ptr %28, i64 %30
  %32 = load ptr, ptr %5, align 8, !tbaa !14
  %33 = load i64, ptr %6, align 8, !tbaa !16
  %34 = load i32, ptr %8, align 4, !tbaa !12
  %35 = zext i32 %34 to i64
  %36 = icmp ult i64 %33, %35
  br i1 %36, label %37, label %39

37:                                               ; preds = %23
  %38 = load i64, ptr %6, align 8, !tbaa !16
  br label %42

39:                                               ; preds = %23
  %40 = load i32, ptr %8, align 4, !tbaa !12
  %41 = zext i32 %40 to i64
  br label %42

42:                                               ; preds = %39, %37
  %43 = phi i64 [ %38, %37 ], [ %41, %39 ]
  call void @llvm.memcpy.p0.p0.i64(ptr align 1 %31, ptr align 1 %32, i64 %43, i1 false)
  %44 = load i64, ptr %6, align 8, !tbaa !16
  %45 = load i32, ptr %8, align 4, !tbaa !12
  %46 = zext i32 %45 to i64
  %47 = icmp ult i64 %44, %46
  br i1 %47, label %48, label %49

48:                                               ; preds = %42
  store i32 1, ptr %9, align 4
  br label %64

49:                                               ; preds = %42
  %50 = load ptr, ptr %4, align 8, !tbaa !4
  %51 = getelementptr inbounds nuw %struct.sha1_ctx, ptr %50, i32 0, i32 2
  %52 = getelementptr inbounds [5 x i32], ptr %51, i64 0, i64 0
  %53 = load ptr, ptr %4, align 8, !tbaa !4
  %54 = getelementptr inbounds nuw %struct.sha1_ctx, ptr %53, i32 0, i32 0
  %55 = getelementptr inbounds [64 x i8], ptr %54, i64 0, i64 0
  call void @rhash_sha1_process_block(ptr noundef %52, ptr noundef %55)
  %56 = load i32, ptr %8, align 4, !tbaa !12
  %57 = load ptr, ptr %5, align 8, !tbaa !14
  %58 = zext i32 %56 to i64
  %59 = getelementptr inbounds nuw i8, ptr %57, i64 %58
  store ptr %59, ptr %5, align 8, !tbaa !14
  %60 = load i32, ptr %8, align 4, !tbaa !12
  %61 = zext i32 %60 to i64
  %62 = load i64, ptr %6, align 8, !tbaa !16
  %63 = sub i64 %62, %61
  store i64 %63, ptr %6, align 8, !tbaa !16
  store i32 0, ptr %9, align 4
  br label %64

64:                                               ; preds = %49, %48
  call void @llvm.lifetime.end.p0(i64 4, ptr %8) #5
  %65 = load i32, ptr %9, align 4
  switch i32 %65, label %105 [
    i32 0, label %66
  ]

66:                                               ; preds = %64
  br label %67

67:                                               ; preds = %66, %3
  br label %68

68:                                               ; preds = %86, %67
  %69 = load i64, ptr %6, align 8, !tbaa !16
  %70 = icmp uge i64 %69, 64
  br i1 %70, label %71, label %95

71:                                               ; preds = %68
  call void @llvm.lifetime.start.p0(i64 8, ptr %10) #5
  %72 = load ptr, ptr %5, align 8, !tbaa !14
  %73 = ptrtoint ptr %72 to i64
  %74 = and i64 3, %73
  %75 = icmp eq i64 0, %74
  br i1 %75, label %76, label %78

76:                                               ; preds = %71
  %77 = load ptr, ptr %5, align 8, !tbaa !14
  store ptr %77, ptr %10, align 8, !tbaa !17
  br label %86

78:                                               ; preds = %71
  %79 = load ptr, ptr %4, align 8, !tbaa !4
  %80 = getelementptr inbounds nuw %struct.sha1_ctx, ptr %79, i32 0, i32 0
  %81 = getelementptr inbounds [64 x i8], ptr %80, i64 0, i64 0
  %82 = load ptr, ptr %5, align 8, !tbaa !14
  call void @llvm.memcpy.p0.p0.i64(ptr align 8 %81, ptr align 1 %82, i64 64, i1 false)
  %83 = load ptr, ptr %4, align 8, !tbaa !4
  %84 = getelementptr inbounds nuw %struct.sha1_ctx, ptr %83, i32 0, i32 0
  %85 = getelementptr inbounds [64 x i8], ptr %84, i64 0, i64 0
  store ptr %85, ptr %10, align 8, !tbaa !17
  br label %86

86:                                               ; preds = %78, %76
  %87 = load ptr, ptr %4, align 8, !tbaa !4
  %88 = getelementptr inbounds nuw %struct.sha1_ctx, ptr %87, i32 0, i32 2
  %89 = getelementptr inbounds [5 x i32], ptr %88, i64 0, i64 0
  %90 = load ptr, ptr %10, align 8, !tbaa !17
  call void @rhash_sha1_process_block(ptr noundef %89, ptr noundef %90)
  %91 = load ptr, ptr %5, align 8, !tbaa !14
  %92 = getelementptr inbounds i8, ptr %91, i64 64
  store ptr %92, ptr %5, align 8, !tbaa !14
  %93 = load i64, ptr %6, align 8, !tbaa !16
  %94 = sub i64 %93, 64
  store i64 %94, ptr %6, align 8, !tbaa !16
  call void @llvm.lifetime.end.p0(i64 8, ptr %10) #5
  br label %68, !llvm.loop !19

95:                                               ; preds = %68
  %96 = load i64, ptr %6, align 8, !tbaa !16
  %97 = icmp ne i64 %96, 0
  br i1 %97, label %98, label %104

98:                                               ; preds = %95
  %99 = load ptr, ptr %4, align 8, !tbaa !4
  %100 = getelementptr inbounds nuw %struct.sha1_ctx, ptr %99, i32 0, i32 0
  %101 = getelementptr inbounds [64 x i8], ptr %100, i64 0, i64 0
  %102 = load ptr, ptr %5, align 8, !tbaa !14
  %103 = load i64, ptr %6, align 8, !tbaa !16
  call void @llvm.memcpy.p0.p0.i64(ptr align 8 %101, ptr align 1 %102, i64 %103, i1 false)
  br label %104

104:                                              ; preds = %98, %95
  store i32 0, ptr %9, align 4
  br label %105

105:                                              ; preds = %104, %64
  call void @llvm.lifetime.end.p0(i64 4, ptr %7) #5
  %106 = load i32, ptr %9, align 4
  switch i32 %106, label %108 [
    i32 0, label %107
    i32 1, label %107
  ]

107:                                              ; preds = %105, %105
  ret void

108:                                              ; preds = %105
  unreachable
}