; Function Attrs: nofree norecurse nosync nounwind memory(readwrite, inaccessiblemem: none) uwtable
define dso_local void @rhash_sha1_update(ptr noundef captures(none) %0, ptr noundef %1, i64 noundef %2) local_unnamed_addr #1 {
  %4 = getelementptr inbounds nuw i8, ptr %0, i64 64
  %5 = load i64, ptr %4, align 8, !tbaa !4
  %6 = trunc i64 %5 to i32
  %7 = and i32 %6, 63
  %8 = add i64 %5, %2
  store i64 %8, ptr %4, align 8, !tbaa !4
  %.not = icmp eq i32 %7, 0
  br i1 %.not, label %19, label %9

9:                                                ; preds = %3
  %10 = sub nuw nsw i32 64, %7
  %11 = and i64 %5, 63
  %12 = getelementptr inbounds nuw i8, ptr %0, i64 %11
  %13 = zext nneg i32 %10 to i64
  %.not43 = icmp ult i64 %2, %13
  %14 = tail call i64 @llvm.umin.i64(i64 %2, i64 %13)
  tail call void @llvm.memcpy.p0.p0.i64(ptr align 1 %12, ptr align 1 %1, i64 %14, i1 false)
  br i1 %.not43, label %.thread, label %15

15:                                               ; preds = %9
  %16 = getelementptr inbounds nuw i8, ptr %0, i64 72
  tail call fastcc void @rhash_sha1_process_block(ptr noundef nonnull %16, ptr noundef nonnull %0)
  %17 = getelementptr inbounds nuw i8, ptr %1, i64 %13
  %18 = sub nuw i64 %2, %13
  br label %19

19:                                               ; preds = %15, %3
  %.036 = phi i64 [ %18, %15 ], [ %2, %3 ]
  %.035 = phi ptr [ %17, %15 ], [ %1, %3 ]
  %20 = icmp ugt i64 %.036, 63
  br i1 %20, label %.lr.ph, label %._crit_edge

.lr.ph:                                           ; preds = %19
  %.03551 = ptrtoint ptr %.035 to i64
  %21 = getelementptr inbounds nuw i8, ptr %0, i64 72
  %22 = and i64 %.03551, 3
  %23 = icmp eq i64 %22, 0
  br label %24

24:                                               ; preds = %.lr.ph, %26
  %.248 = phi ptr [ %.035, %.lr.ph ], [ %27, %26 ]
  %.23847 = phi i64 [ %.036, %.lr.ph ], [ %28, %26 ]
  br i1 %23, label %26, label %25

25:                                               ; preds = %24
  tail call void @llvm.memcpy.p0.p0.i64(ptr noundef nonnull align 8 dereferenceable(64) %0, ptr noundef nonnull align 1 dereferenceable(64) %.248, i64 64, i1 false)
  br label %26

26:                                               ; preds = %24, %25
  %.0 = phi ptr [ %0, %25 ], [ %.248, %24 ]
  tail call fastcc void @rhash_sha1_process_block(ptr noundef nonnull %21, ptr noundef %.0)
  %27 = getelementptr inbounds nuw i8, ptr %.248, i64 64
  %28 = add i64 %.23847, -64
  %29 = icmp ugt i64 %28, 63
  br i1 %29, label %24, label %._crit_edge, !llvm.loop !11

._crit_edge:                                      ; preds = %26, %19
  %.238.lcssa = phi i64 [ %.036, %19 ], [ %28, %26 ]
  %.2.lcssa = phi ptr [ %.035, %19 ], [ %27, %26 ]
  %.not44 = icmp eq i64 %.238.lcssa, 0
  br i1 %.not44, label %.thread, label %30

30:                                               ; preds = %._crit_edge
  tail call void @llvm.memcpy.p0.p0.i64(ptr nonnull align 8 %0, ptr align 1 %.2.lcssa, i64 %.238.lcssa, i1 false)
  br label %.thread

.thread:                                          ; preds = %9, %._crit_edge, %30
  ret void
}